target datalayout = "e-m:e-p270:32:32-p271:32:32-p272:64:64-i64:64-i128:128-f80:128-n8:16:32:64-S128"
target triple = "x86_64-pc-linux-gnu"

%class.bv_rewriter_core = type { ptr, %class.bv_util, %class.obj_ref }
%class.bv_util = type { %class.bv_recognizers, ptr, ptr }
%class.bv_recognizers = type { i32 }
%class.obj_ref = type { ptr, ptr }
%class.decl = type { %class.ast, %class.symbol, ptr }
%class.ast = type { i32, i32, i32, i32 }
%class.symbol = type { ptr }
%class.app = type { %class.expr, ptr, i32, %struct.app_flags, [0 x ptr] }
%class.expr = type { %class.ast }
%struct.app_flags = type <{ i16, i8, i8 }>
%class.decl_info = type <{ i32, i32, %class.vector.60, i8, [7 x i8] }>
%class.vector.60 = type { ptr }

; Function Attrs: mustprogress nounwind uwtable
define linkonce_odr hidden noundef zeroext i1 @_ZNK9decl_info10is_decl_ofEii(ptr noundef nonnull align 8 dereferenceable(17) %0, i32 noundef %1, i32 noundef %2) #6 comdat align 2 {
  %4 = alloca ptr, align 8
  %5 = alloca i32, align 4
  %6 = alloca i32, align 4
  store ptr %0, ptr %4, align 8, !tbaa !426
  store i32 %1, ptr %5, align 4, !tbaa !63
  store i32 %2, ptr %6, align 4, !tbaa !63
  %7 = load ptr, ptr %4, align 8
  %8 = getelementptr inbounds nuw %class.decl_info, ptr %7, i32 0, i32 0
  %9 = load i32, ptr %8, align 8, !tbaa !518
  %10 = load i32, ptr %5, align 4, !tbaa !63
  %11 = icmp eq i32 %9, %10
  br i1 %11, label %12, label %17

12:                                               ; preds = %3
  %13 = load i32, ptr %6, align 4, !tbaa !63
  %14 = getelementptr inbounds nuw %class.decl_info, ptr %7, i32 0, i32 1
  %15 = load i32, ptr %14, align 4, !tbaa !427
  %16 = icmp eq i32 %13, %15
  br label %17

17:                                               ; preds = %12, %3
  %18 = phi i1 [ false, %3 ], [ %16, %12 ]
  ret i1 %18
}

; Function Attrs: mustprogress nounwind uwtable
define linkonce_odr hidden noundef i32 @_ZNK14bv_recognizers7get_fidEv(ptr noundef nonnull align 4 dereferenceable(4) %0) #6 comdat align 2 {
  %2 = alloca ptr, align 8
  store ptr %0, ptr %2, align 8, !tbaa !97
  %3 = load ptr, ptr %2, align 8
  %4 = getelementptr inbounds nuw %class.bv_recognizers, ptr %3, i32 0, i32 0
  %5 = load i32, ptr %4, align 4, !tbaa !147
  ret i32 %5
}

; Function Attrs: mustprogress uwtable
define linkonce_odr hidden noundef zeroext i1 @_ZNK4decl10is_decl_ofEii(ptr noundef nonnull align 8 dereferenceable(32) %0, i32 noundef %1, i32 noundef %2) #4 comdat align 2 {
  %4 = alloca ptr, align 8
  %5 = alloca i32, align 4
  %6 = alloca i32, align 4
  store ptr %0, ptr %4, align 8, !tbaa !72
  store i32 %1, ptr %5, align 4, !tbaa !63
  store i32 %2, ptr %6, align 4, !tbaa !63
  %7 = load ptr, ptr %4, align 8
  %8 = getelementptr inbounds nuw %class.decl, ptr %7, i32 0, i32 2
  %9 = load ptr, ptr %8, align 8, !tbaa !74
  %10 = icmp ne ptr %9, null
  br i1 %10, label %11, label %17

11:                                               ; preds = %3
  %12 = getelementptr inbounds nuw %class.decl, ptr %7, i32 0, i32 2
  %13 = load ptr, ptr %12, align 8, !tbaa !74
  %14 = load i32, ptr %5, align 4, !tbaa !63
  %15 = load i32, ptr %6, align 4, !tbaa !63
  %16 = call noundef zeroext i1 @_ZNK9decl_info10is_decl_ofEii(ptr noundef nonnull align 8 dereferenceable(17) %13, i32 noundef %14, i32 noundef %15)
  br label %17

17:                                               ; preds = %11, %3
  %18 = phi i1 [ false, %3 ], [ %16, %11 ]
  ret i1 %18
}

; Function Attrs: mustprogress nounwind uwtable
define linkonce_odr hidden noundef i32 @_ZNK14bv_recognizers13get_family_idEv(ptr noundef nonnull align 4 dereferenceable(4) %0) #6 comdat align 2 {
  %2 = alloca ptr, align 8
  store ptr %0, ptr %2, align 8, !tbaa !97
  %3 = load ptr, ptr %2, align 8
  %4 = call noundef i32 @_ZNK14bv_recognizers7get_fidEv(ptr noundef nonnull align 4 dereferenceable(4) %3)
  ret i32 %4
}

; Function Attrs: mustprogress uwtable
define linkonce_odr hidden noundef zeroext i1 @_ZNK3app9is_app_ofEii(ptr noundef nonnull align 8 dereferenceable(32) %0, i32 noundef %1, i32 noundef %2) #4 comdat align 2 {
  %4 = alloca ptr, align 8
  %5 = alloca i32, align 4
  %6 = alloca i32, align 4
  store ptr %0, ptr %4, align 8, !tbaa !90
  store i32 %1, ptr %5, align 4, !tbaa !63
  store i32 %2, ptr %6, align 4, !tbaa !63
  %7 = load ptr, ptr %4, align 8
  %8 = getelementptr inbounds nuw %class.app, ptr %7, i32 0, i32 1
  %9 = load ptr, ptr %8, align 8, !tbaa !228
  %10 = load i32, ptr %5, align 4, !tbaa !63
  %11 = load i32, ptr %6, align 4, !tbaa !63
  %12 = call noundef zeroext i1 @_ZNK4decl10is_decl_ofEii(ptr noundef nonnull align 8 dereferenceable(32) %9, i32 noundef %10, i32 noundef %11)
  ret i1 %12
}

; Function Attrs: inlinehint mustprogress nounwind uwtable
define linkonce_odr hidden noundef ptr @_Z6to_appPK3ast(ptr noundef %0) #7 comdat {
  %2 = alloca ptr, align 8
  store ptr %0, ptr %2, align 8, !tbaa !141
  %3 = load ptr, ptr %2, align 8, !tbaa !141
  ret ptr %3
}

; Function Attrs: mustprogress nounwind uwtable
define linkonce_odr hidden noundef i32 @_ZNK3ast8get_kindEv(ptr noundef nonnull align 4 dereferenceable(16) %0) #6 comdat align 2 {
  %2 = alloca ptr, align 8
  store ptr %0, ptr %2, align 8, !tbaa !141
  %3 = load ptr, ptr %2, align 8
  %4 = getelementptr inbounds nuw %class.ast, ptr %3, i32 0, i32 1
  %5 = load i32, ptr %4, align 4
  %6 = and i32 %5, 65535
  ret i32 %6
}

; Function Attrs: mustprogress nounwind uwtable
define linkonce_odr hidden noundef i32 @_ZNK16bv_rewriter_core13add_decl_kindEv(ptr noundef nonnull align 8 dereferenceable(48) %0) #6 comdat align 2 {
  %2 = alloca ptr, align 8
  store ptr %0, ptr %2, align 8, !tbaa !286
  ret i32 4
}

; Function Attrs: mustprogress uwtable
define linkonce_odr hidden noundef i32 @_ZNK16bv_rewriter_core7get_fidEv(ptr noundef nonnull align 8 dereferenceable(48) %0) #4 comdat align 2 {
  %2 = alloca ptr, align 8
  store ptr %0, ptr %2, align 8, !tbaa !286
  %3 = load ptr, ptr %2, align 8
  %4 = getelementptr inbounds nuw %class.bv_rewriter_core, ptr %3, i32 0, i32 1
  %5 = call noundef i32 @_ZNK14bv_recognizers13get_family_idEv(ptr noundef nonnull align 4 dereferenceable(4) %4)
  ret i32 %5
}

; Function Attrs: inlinehint mustprogress uwtable
define linkonce_odr hidden noundef zeroext i1 @_Z9is_app_ofPK4exprii(ptr noundef %0, i32 noundef %1, i32 noundef %2) #8 comdat {
  %4 = alloca ptr, align 8
  %5 = alloca i32, align 4
  %6 = alloca i32, align 4
  store ptr %0, ptr %4, align 8, !tbaa !71
  store i32 %1, ptr %5, align 4, !tbaa !63
  store i32 %2, ptr %6, align 4, !tbaa !63
  %7 = load ptr, ptr %4, align 8, !tbaa !71
  %8 = call noundef i32 @_ZNK3ast8get_kindEv(ptr noundef nonnull align 4 dereferenceable(16) %7)
  %9 = icmp eq i32 %8, 0
  br i1 %9, label %10, label %16

10:                                               ; preds = %3
  %11 = load ptr, ptr %4, align 8, !tbaa !71
  %12 = call noundef ptr @_Z6to_appPK3ast(ptr noundef %11)
  %13 = load i32, ptr %5, align 4, !tbaa !63
  %14 = load i32, ptr %6, align 4, !tbaa !63
  %15 = call noundef zeroext i1 @_ZNK3app9is_app_ofEii(ptr noundef nonnull align 8 dereferenceable(32) %12, i32 noundef %13, i32 noundef %14)
  br label %16

16:                                               ; preds = %10, %3
  %17 = phi i1 [ false, %3 ], [ %15, %10 ]
  ret i1 %17
}

; Function Attrs: mustprogress uwtable
define weak_odr hidden noundef i32 @_ZNK13poly_rewriterI16bv_rewriter_coreE13add_decl_kindEv(ptr noundef nonnull align 8 dereferenceable(92) %0) #4 comdat align 2 {
  %2 = alloca ptr, align 8
  store ptr %0, ptr %2, align 8, !tbaa !48
  %3 = load ptr, ptr %2, align 8
  %4 = call noundef i32 @_ZNK16bv_rewriter_core13add_decl_kindEv(ptr noundef nonnull align 8 dereferenceable(48) %3)
  ret i32 %4
}

; Function Attrs: mustprogress uwtable
define weak_odr hidden noundef i32 @_ZNK13poly_rewriterI16bv_rewriter_coreE7get_fidEv(ptr noundef nonnull align 8 dereferenceable(92) %0) #4 comdat align 2 {
  %2 = alloca ptr, align 8
  store ptr %0, ptr %2, align 8, !tbaa !48
  %3 = load ptr, ptr %2, align 8
  %4 = call noundef i32 @_ZNK16bv_rewriter_core7get_fidEv(ptr noundef nonnull align 8 dereferenceable(48) %3)
  ret i32 %4
}

; Function Attrs: mustprogress nounwind uwtable
define linkonce_odr hidden noundef ptr @_ZNK3app3endEv(ptr noundef nonnull align 8 dereferenceable(32) %0) #6 comdat align 2 {
  %2 = alloca ptr, align 8
  store ptr %0, ptr %2, align 8, !tbaa !90
  %3 = load ptr, ptr %2, align 8
  %4 = getelementptr inbounds nuw %class.app, ptr %3, i32 0, i32 4
  %5 = getelementptr inbounds [0 x ptr], ptr %4, i64 0, i64 0
  %6 = getelementptr inbounds nuw %class.app, ptr %3, i32 0, i32 2
  %7 = load i32, ptr %6, align 8, !tbaa !143
  %8 = zext i32 %7 to i64
  %9 = getelementptr inbounds nuw ptr, ptr %5, i64 %8
  ret ptr %9
}

; Function Attrs: mustprogress nounwind uwtable
define linkonce_odr hidden noundef ptr @_ZNK3app5beginEv(ptr noundef nonnull align 8 dereferenceable(32) %0) #6 comdat align 2 {
  %2 = alloca ptr, align 8
  store ptr %0, ptr %2, align 8, !tbaa !90
  %3 = load ptr, ptr %2, align 8
  %4 = getelementptr inbounds nuw %class.app, ptr %3, i32 0, i32 4
  %5 = getelementptr inbounds [0 x ptr], ptr %4, i64 0, i64 0
  ret ptr %5
}

; Function Attrs: mustprogress nounwind uwtable
define linkonce_odr hidden noundef i32 @_ZNK3app12get_num_argsEv(ptr noundef nonnull align 8 dereferenceable(32) %0) #6 comdat align 2 {
  %2 = alloca ptr, align 8
  store ptr %0, ptr %2, align 8, !tbaa !90
  %3 = load ptr, ptr %2, align 8
  %4 = getelementptr inbounds nuw %class.app, ptr %3, i32 0, i32 2
  %5 = load i32, ptr %4, align 8, !tbaa !143
  ret i32 %5
}

; Function Attrs: inlinehint mustprogress nounwind uwtable
define linkonce_odr hidden noundef ptr @_Z6to_appP3ast(ptr noundef %0) #7 comdat {
  %2 = alloca ptr, align 8
  store ptr %0, ptr %2, align 8, !tbaa !141
  %3 = load ptr, ptr %2, align 8, !tbaa !141
  ret ptr %3
}

; Function Attrs: mustprogress uwtable
define weak_odr hidden noundef zeroext i1 @_ZNK13poly_rewriterI16bv_rewriter_coreE6is_addEP4expr(ptr noundef nonnull align 8 dereferenceable(92) %0, ptr noundef %1) #4 comdat align 2 {
  %3 = alloca ptr, align 8
  %4 = alloca ptr, align 8
  store ptr %0, ptr %3, align 8, !tbaa !48
  store ptr %1, ptr %4, align 8, !tbaa !71
  %5 = load ptr, ptr %3, align 8
  %6 = load ptr, ptr %4, align 8, !tbaa !71
  %7 = call noundef i32 @_ZNK13poly_rewriterI16bv_rewriter_coreE7get_fidEv(ptr noundef nonnull align 8 dereferenceable(92) %5)
  %8 = call noundef i32 @_ZNK13poly_rewriterI16bv_rewriter_coreE13add_decl_kindEv(ptr noundef nonnull align 8 dereferenceable(92) %5)
  %9 = call noundef zeroext i1 @_Z9is_app_ofPK4exprii(ptr noundef %6, i32 noundef %7, i32 noundef %8)
  ret i1 %9
}

; Function Attrs: mustprogress uwtable
define hidden noundef zeroext i1 @_ZN11bv_rewriter18is_add_no_overflowEP4expr(ptr noundef nonnull align 8 dereferenceable(157) %0, ptr noundef %1) #4 align 2 {
  %3 = alloca i1, align 1
  %4 = alloca ptr, align 8
  %5 = alloca ptr, align 8
  %6 = alloca i32, align 4
  %7 = alloca i32, align 4
  %8 = alloca ptr, align 8
  %9 = alloca ptr, align 8
  %10 = alloca ptr, align 8
  %11 = alloca ptr, align 8
  store ptr %0, ptr %4, align 8, !tbaa !3
  store ptr %1, ptr %5, align 8, !tbaa !71
  %12 = load ptr, ptr %4, align 8
  %13 = load ptr, ptr %5, align 8, !tbaa !71
  %14 = call noundef zeroext i1 @_ZNK13poly_rewriterI16bv_rewriter_coreE6is_addEP4expr(ptr noundef nonnull align 8 dereferenceable(92) %12, ptr noundef %13)
  br i1 %14, label %16, label %15

15:                                               ; preds = %2
  store i1 false, ptr %3, align 1
  br label %56

16:                                               ; preds = %2
  call void @llvm.lifetime.start.p0(i64 4, ptr %6) #3
  %17 = load ptr, ptr %5, align 8, !tbaa !71
  %18 = call noundef ptr @_Z6to_appP3ast(ptr noundef %17)
  %19 = call noundef i32 @_ZNK3app12get_num_argsEv(ptr noundef nonnull align 8 dereferenceable(32) %18)
  store i32 %19, ptr %6, align 4, !tbaa !63
  %20 = load i32, ptr %6, align 4, !tbaa !63
  %21 = icmp ule i32 %20, 1
  br i1 %21, label %22, label %23

22:                                               ; preds = %16
  store i1 true, ptr %3, align 1
  store i32 1, ptr %7, align 4
  br label %55

23:                                               ; preds = %16
  %24 = load i32, ptr %6, align 4, !tbaa !63
  %25 = sub i32 %24, 2
  store i32 %25, ptr %6, align 4, !tbaa !63
  call void @llvm.lifetime.start.p0(i64 8, ptr %8) #3
  %26 = load ptr, ptr %5, align 8, !tbaa !71
  %27 = call noundef ptr @_Z6to_appP3ast(ptr noundef %26)
  store ptr %27, ptr %8, align 8, !tbaa !90
  call void @llvm.lifetime.start.p0(i64 8, ptr %9) #3
  %28 = load ptr, ptr %8, align 8, !tbaa !90
  %29 = call noundef ptr @_ZNK3app5beginEv(ptr noundef nonnull align 8 dereferenceable(32) %28)
  store ptr %29, ptr %9, align 8, !tbaa !64
  call void @llvm.lifetime.start.p0(i64 8, ptr %10) #3
  %30 = load ptr, ptr %8, align 8, !tbaa !90
  %31 = call noundef ptr @_ZNK3app3endEv(ptr noundef nonnull align 8 dereferenceable(32) %30)
  store ptr %31, ptr %10, align 8, !tbaa !64
  br label %32

32:                                               ; preds = %49, %23
  %33 = load ptr, ptr %9, align 8, !tbaa !64
  %34 = load ptr, ptr %10, align 8, !tbaa !64
  %35 = icmp ne ptr %33, %34
  br i1 %35, label %37, label %36

36:                                               ; preds = %32
  store i32 2, ptr %7, align 4
  br label %52

37:                                               ; preds = %32
  call void @llvm.lifetime.start.p0(i64 8, ptr %11) #3
  %38 = load ptr, ptr %9, align 8, !tbaa !64
  %39 = load ptr, ptr %38, align 8, !tbaa !71
  store ptr %39, ptr %11, align 8, !tbaa !71
  %40 = load i32, ptr %6, align 4, !tbaa !63
  %41 = load ptr, ptr %11, align 8, !tbaa !71
  %42 = call noundef i32 @_ZN11bv_rewriter21num_leading_zero_bitsEP4expr(ptr noundef nonnull align 8 dereferenceable(157) %12, ptr noundef %41)
  %43 = icmp uge i32 %40, %42
  br i1 %43, label %44, label %45

44:                                               ; preds = %37
  store i1 false, ptr %3, align 1
  store i32 1, ptr %7, align 4
  br label %46

45:                                               ; preds = %37
  store i32 0, ptr %7, align 4
  br label %46

46:                                               ; preds = %45, %44
  call void @llvm.lifetime.end.p0(i64 8, ptr %11) #3
  %47 = load i32, ptr %7, align 4
  switch i32 %47, label %52 [
    i32 0, label %48
  ]

48:                                               ; preds = %46
  br label %49

49:                                               ; preds = %48
  %50 = load ptr, ptr %9, align 8, !tbaa !64
  %51 = getelementptr inbounds nuw ptr, ptr %50, i32 1
  store ptr %51, ptr %9, align 8, !tbaa !64
  br label %32

52:                                               ; preds = %46, %36
  call void @llvm.lifetime.end.p0(i64 8, ptr %10) #3
  call void @llvm.lifetime.end.p0(i64 8, ptr %9) #3
  call void @llvm.lifetime.end.p0(i64 8, ptr %8) #3
  %53 = load i32, ptr %7, align 4
  switch i32 %53, label %55 [
    i32 2, label %54
  ]

54:                                               ; preds = %52
  store i1 true, ptr %3, align 1
  store i32 1, ptr %7, align 4
  br label %55

55:                                               ; preds = %54, %52, %22
  call void @llvm.lifetime.end.p0(i64 4, ptr %6) #3
  br label %56

56:                                               ; preds = %55, %15
  %57 = load i1, ptr %3, align 1
  ret i1 %57
}