; Function Attrs: mustprogress uwtable
define hidden noundef zeroext i1 @_ZN11bv_rewriter18is_add_no_overflowEP4expr(ptr noundef nonnull align 8 dereferenceable(157) %0, ptr noundef readonly captures(address) %1) local_unnamed_addr #3 align 2 {
  %3 = getelementptr inbounds nuw i8, ptr %0, i64 8
  %4 = load i32, ptr %3, align 8, !tbaa !75
  %5 = getelementptr inbounds nuw i8, ptr %1, i64 4
  %6 = load i32, ptr %5, align 4
  %7 = and i32 %6, 65535
  %8 = icmp eq i32 %7, 0
  br i1 %8, label %9, label %_ZNK13poly_rewriterI16bv_rewriter_coreE6is_addEP4expr.exit.thread

9:                                                ; preds = %2
  %10 = getelementptr inbounds nuw i8, ptr %1, i64 16
  %11 = load ptr, ptr %10, align 8, !tbaa !78
  %12 = getelementptr inbounds nuw i8, ptr %11, i64 24
  %13 = load ptr, ptr %12, align 8, !tbaa !57
  %.not.i.i.i.i = icmp eq ptr %13, null
  br i1 %.not.i.i.i.i, label %_ZNK13poly_rewriterI16bv_rewriter_coreE6is_addEP4expr.exit.thread, label %_ZNK13poly_rewriterI16bv_rewriter_coreE6is_addEP4expr.exit

_ZNK13poly_rewriterI16bv_rewriter_coreE6is_addEP4expr.exit: ; preds = %9
  %14 = load i32, ptr %13, align 8, !tbaa !82
  %15 = icmp eq i32 %14, %4
  %16 = getelementptr inbounds nuw i8, ptr %13, i64 4
  %17 = load i32, ptr %16, align 4
  %18 = icmp eq i32 %17, 4
  %19 = select i1 %15, i1 %18, i1 false
  br i1 %19, label %20, label %_ZNK13poly_rewriterI16bv_rewriter_coreE6is_addEP4expr.exit.thread

20:                                               ; preds = %_ZNK13poly_rewriterI16bv_rewriter_coreE6is_addEP4expr.exit
  %21 = getelementptr inbounds nuw i8, ptr %1, i64 24
  %22 = load i32, ptr %21, align 8, !tbaa !83
  %23 = icmp ult i32 %22, 2
  br i1 %23, label %_ZNK13poly_rewriterI16bv_rewriter_coreE6is_addEP4expr.exit.thread, label %.lr.ph.preheader

.lr.ph.preheader:                                 ; preds = %20
  %24 = add i32 %22, -2
  %25 = zext i32 %22 to i64
  %.idx = shl nuw nsw i64 %25, 3
  %26 = getelementptr inbounds nuw i8, ptr %1, i64 %.idx
  %.ptr26 = getelementptr inbounds nuw i8, ptr %26, i64 32
  %.ptr = getelementptr inbounds nuw i8, ptr %1, i64 32
  br label %.lr.ph

.lr.ph:                                           ; preds = %.lr.ph, %.lr.ph.preheader
  %.01723 = phi ptr [ %.ptr, %.lr.ph.preheader ], [ %29, %.lr.ph ]
  %27 = load ptr, ptr %.01723, align 8, !tbaa !67
  %28 = tail call noundef i32 @_ZN11bv_rewriter21num_leading_zero_bitsEP4expr(ptr noundef nonnull align 8 dereferenceable(157) %0, ptr noundef %27)
  %.not21 = icmp ult i32 %24, %28
  %29 = getelementptr inbounds nuw i8, ptr %.01723, i64 8
  %.not = icmp ne ptr %29, %.ptr26
  %or.cond.not = select i1 %.not21, i1 %.not, i1 false
  br i1 %or.cond.not, label %.lr.ph, label %_ZNK13poly_rewriterI16bv_rewriter_coreE6is_addEP4expr.exit.thread

_ZNK13poly_rewriterI16bv_rewriter_coreE6is_addEP4expr.exit.thread: ; preds = %.lr.ph, %9, %2, %20, %_ZNK13poly_rewriterI16bv_rewriter_coreE6is_addEP4expr.exit
  %.0 = phi i1 [ false, %_ZNK13poly_rewriterI16bv_rewriter_coreE6is_addEP4expr.exit ], [ true, %20 ], [ false, %2 ], [ false, %9 ], [ %.not21, %.lr.ph ]
  ret i1 %.0
}